target datalayout = "e-m:e-p270:32:32-p271:32:32-p272:64:64-i64:64-i128:128-f80:128-n8:16:32:64-S128"
target triple = "x86_64-unknown-linux-gnu"

%union.pthread_mutex_t = type { %struct.__pthread_mutex_s }
%struct.__pthread_mutex_s = type { i32, i32, i32, i32, i32, i16, i16, %struct.__pthread_internal_list }
%struct.__pthread_internal_list = type { ptr, ptr }
%"class.std::basic_ios" = type { %"class.std::ios_base", ptr, i8, i8, ptr, ptr, ptr, ptr }
%"class.std::ios_base" = type { ptr, i64, i64, i32, i32, i32, ptr, %"struct.std::ios_base::_Words", [8 x %"struct.std::ios_base::_Words"], i32, ptr, %"class.std::locale" }
%"struct.std::ios_base::_Words" = type { ptr, i64 }
%"class.std::locale" = type { ptr }
%"class.fmt::v10::basic_string_view" = type { ptr, i64 }
%"class.fmt::v10::basic_format_args" = type { i64, %union.anon.121 }
%union.anon.121 = type { ptr }
%"class.fmt::v10::detail::value" = type { %union.anon.122 }
%union.anon.122 = type { i128 }
%"class.std::basic_ostream.base" = type { ptr }
%"class.std::basic_streambuf" = type { ptr, ptr, ptr, ptr, ptr, ptr, ptr, %"class.std::locale" }
%"class.std::basic_ofstream" = type { %"class.std::basic_ostream.base", %"class.std::basic_filebuf", %"class.std::basic_ios" }
%"class.std::basic_filebuf" = type { %"class.std::basic_streambuf", %union.pthread_mutex_t, %"class.std::__basic_file", i32, %struct.__mbstate_t, %struct.__mbstate_t, %struct.__mbstate_t, ptr, i64, i8, i8, i8, i8, ptr, ptr, i8, ptr, ptr, i64, ptr, ptr }
%"class.std::__basic_file" = type <{ ptr, i8, [7 x i8] }>
%struct.__mbstate_t = type { i32, %union.anon.81 }
%union.anon.81 = type { i32 }
%"class.fmt::v10::basic_format_string.82" = type { %"class.fmt::v10::basic_string_view" }
%"class.fmt::v10::format_arg_store.214" = type { %"struct.fmt::v10::detail::arg_data.215" }
%"struct.fmt::v10::detail::arg_data.215" = type { [1 x %"class.fmt::v10::detail::value"] }

@.str.161 = private unnamed_addr constant [8 x i8] c"discard\00", align 1

; Function Attrs: mustprogress nounwind uwtable
define linkonce_odr hidden void @_ZN3fmt3v109monostateC2Ev(ptr noundef nonnull align 1 dereferenceable(1) %this) unnamed_addr #5 comdat align 2 {
entry:
  %this.addr = alloca ptr, align 8
  store ptr %this, ptr %this.addr, align 8
  ret void
}

; Function Attrs: mustprogress uwtable
define linkonce_odr hidden { i64, i64 } @_ZN3fmt3v1016make_format_argsINS0_20basic_format_contextINS0_8appenderEcEEJEEENS0_16format_arg_storeIT_JDpNSt9remove_cvINSt16remove_referenceIT0_E4typeEE4typeEEEEDpRS9_() #4 comdat {
entry:
  %this.addr.i.i = alloca ptr, align 8
  %this.addr.i2 = alloca ptr, align 8
  %this.addr.i = alloca ptr, align 8
  %retval = alloca %"class.fmt::v10::format_arg_store.214", align 16
  store ptr %retval, ptr %this.addr.i, align 8
  %this1.i = load ptr, ptr %this.addr.i, align 8
  store ptr %this1.i, ptr %this.addr.i2, align 8
  %this1.i3 = load ptr, ptr %this.addr.i2, align 8
  %arrayinit.end.i = getelementptr inbounds %"class.fmt::v10::detail::value", ptr %this1.i3, i64 1
  br label %arrayinit.body.i

arrayinit.body.i:                                 ; preds = %arrayinit.body.i, %entry
  %arrayinit.cur.i = phi ptr [ %this1.i3, %entry ], [ %arrayinit.next.i, %arrayinit.body.i ]
  store ptr %arrayinit.cur.i, ptr %this.addr.i.i, align 8
  %this1.i.i = load ptr, ptr %this.addr.i.i, align 8
  call void @_ZN3fmt3v109monostateC2Ev(ptr noundef nonnull align 1 dereferenceable(1) %this1.i.i)
  %arrayinit.next.i = getelementptr inbounds %"class.fmt::v10::detail::value", ptr %arrayinit.cur.i, i64 1
  %arrayinit.done.i = icmp eq ptr %arrayinit.next.i, %arrayinit.end.i
  br i1 %arrayinit.done.i, label %_ZN3fmt3v106detail8arg_dataINS1_5valueINS0_20basic_format_contextINS0_8appenderEcEEEEcLm0ELm0EEC2IJEEEDpRKT_.exit, label %arrayinit.body.i

_ZN3fmt3v106detail8arg_dataINS1_5valueINS0_20basic_format_contextINS0_8appenderEcEEEEcLm0ELm0EEC2IJEEEDpRKT_.exit: ; preds = %arrayinit.body.i
  %coerce.dive = getelementptr inbounds %"class.fmt::v10::format_arg_store.214", ptr %retval, i32 0, i32 0
  %coerce.dive1 = getelementptr inbounds %"struct.fmt::v10::detail::arg_data.215", ptr %coerce.dive, i32 0, i32 0
  %0 = load { i64, i64 }, ptr %coerce.dive1, align 16
  ret { i64, i64 } %0
}

; Function Attrs: mustprogress uwtable
define linkonce_odr hidden void @_ZN3fmt3v105printIJEEEvRSoNS0_19basic_format_stringIcJDpNS0_13type_identityIT_E4typeEEEEDpOS5_(ptr noundef nonnull align 8 dereferenceable(8) %os, ptr %fmt.coerce0, i64 %fmt.coerce1) #4 comdat {
entry:
  %this.addr.i6 = alloca ptr, align 8
  %this.addr.i.i = alloca ptr, align 8
  %desc.addr.i.i = alloca i64, align 8
  %values.addr.i.i = alloca ptr, align 8
  %this.addr.i4 = alloca ptr, align 8
  %store.addr.i = alloca ptr, align 8
  %retval.i = alloca %"class.fmt::v10::basic_string_view", align 8
  %this.addr.i = alloca ptr, align 8
  %fmt = alloca %"class.fmt::v10::basic_format_string.82", align 8
  %os.addr = alloca ptr, align 8
  %vargs = alloca ptr, align 8
  %ref.tmp = alloca %"class.fmt::v10::format_arg_store.214", align 16
  %agg.tmp = alloca %"class.fmt::v10::basic_string_view", align 8
  %agg.tmp3 = alloca %"class.fmt::v10::basic_format_args", align 8
  %0 = getelementptr inbounds { ptr, i64 }, ptr %fmt, i32 0, i32 0
  store ptr %fmt.coerce0, ptr %0, align 8
  %1 = getelementptr inbounds { ptr, i64 }, ptr %fmt, i32 0, i32 1
  store i64 %fmt.coerce1, ptr %1, align 8
  store ptr %os, ptr %os.addr, align 8
  %call = call { i64, i64 } @_ZN3fmt3v1016make_format_argsINS0_20basic_format_contextINS0_8appenderEcEEJEEENS0_16format_arg_storeIT_JDpNSt9remove_cvINSt16remove_referenceIT0_E4typeEE4typeEEEEDpRS9_()
  %coerce.dive = getelementptr inbounds %"class.fmt::v10::format_arg_store.214", ptr %ref.tmp, i32 0, i32 0
  %coerce.dive1 = getelementptr inbounds %"struct.fmt::v10::detail::arg_data.215", ptr %coerce.dive, i32 0, i32 0
  %2 = getelementptr inbounds { i64, i64 }, ptr %coerce.dive1, i32 0, i32 0
  %3 = extractvalue { i64, i64 } %call, 0
  store i64 %3, ptr %2, align 16
  %4 = getelementptr inbounds { i64, i64 }, ptr %coerce.dive1, i32 0, i32 1
  %5 = extractvalue { i64, i64 } %call, 1
  store i64 %5, ptr %4, align 8
  store ptr %ref.tmp, ptr %vargs, align 8
  %6 = load ptr, ptr %os.addr, align 8
  store ptr %fmt, ptr %this.addr.i, align 8
  %this1.i = load ptr, ptr %this.addr.i, align 8
  call void @llvm.memcpy.p0.p0.i64(ptr align 8 %retval.i, ptr align 8 %this1.i, i64 16, i1 false)
  %7 = load { ptr, i64 }, ptr %retval.i, align 8
  %8 = getelementptr inbounds { ptr, i64 }, ptr %agg.tmp, i32 0, i32 0
  %9 = extractvalue { ptr, i64 } %7, 0
  store ptr %9, ptr %8, align 8
  %10 = getelementptr inbounds { ptr, i64 }, ptr %agg.tmp, i32 0, i32 1
  %11 = extractvalue { ptr, i64 } %7, 1
  store i64 %11, ptr %10, align 8
  %12 = load ptr, ptr %vargs, align 8
  store ptr %agg.tmp3, ptr %this.addr.i4, align 8
  store ptr %12, ptr %store.addr.i, align 8
  %this1.i5 = load ptr, ptr %this.addr.i4, align 8
  %13 = load ptr, ptr %store.addr.i, align 8
  store ptr %13, ptr %this.addr.i6, align 8
  %this1.i7 = load ptr, ptr %this.addr.i6, align 8
  store ptr %this1.i5, ptr %this.addr.i.i, align 8
  store i64 0, ptr %desc.addr.i.i, align 8
  store ptr %this1.i7, ptr %values.addr.i.i, align 8
  %this1.i.i = load ptr, ptr %this.addr.i.i, align 8
  %14 = load i64, ptr %desc.addr.i.i, align 8
  store i64 %14, ptr %this1.i.i, align 8
  %15 = getelementptr inbounds %"class.fmt::v10::basic_format_args", ptr %this1.i.i, i32 0, i32 1
  %16 = load ptr, ptr %values.addr.i.i, align 8
  store ptr %16, ptr %15, align 8
  %17 = getelementptr inbounds { ptr, i64 }, ptr %agg.tmp, i32 0, i32 0
  %18 = load ptr, ptr %17, align 8
  %19 = getelementptr inbounds { ptr, i64 }, ptr %agg.tmp, i32 0, i32 1
  %20 = load i64, ptr %19, align 8
  %21 = getelementptr inbounds { i64, ptr }, ptr %agg.tmp3, i32 0, i32 0
  %22 = load i64, ptr %21, align 8
  %23 = getelementptr inbounds { i64, ptr }, ptr %agg.tmp3, i32 0, i32 1
  %24 = load ptr, ptr %23, align 8
  call void @_ZN3fmt3v106vprintIcEEvRSt13basic_ostreamIT_St11char_traitsIS3_EENS0_17basic_string_viewINS0_13type_identityIS3_E4typeEEENS0_17basic_format_argsINS0_20basic_format_contextINSt11conditionalIXsr3std7is_sameISB_cEE5valueENS0_8appenderESt20back_insert_iteratorINS0_6detail6bufferISB_EEEE4typeESB_EEEE(ptr noundef nonnull align 8 dereferenceable(8) %6, ptr %18, i64 %20, i64 %22, ptr %24)
  ret void
}

; Function Attrs: mustprogress nounwind uwtable
define linkonce_odr hidden noundef i64 @_ZNSt11char_traitsIcE6lengthEPKc(ptr noundef %__s) #5 comdat align 2 {
entry:
  %__s.addr = alloca ptr, align 8
  store ptr %__s, ptr %__s.addr, align 8
  %0 = load ptr, ptr %__s.addr, align 8
  %call = call i64 @strlen(ptr noundef %0) #3
  ret i64 %call
}

; Function Attrs: mustprogress uwtable
define hidden void @_ZN33ostream_test_closed_ofstream_Test8TestBodyEv(ptr noundef nonnull align 8 dereferenceable(16) %this) unnamed_addr #4 align 2 personality ptr @__gxx_personality_v0 {
entry:
  %.addr.i = alloca ptr, align 8
  %this.addr.i.i = alloca ptr, align 8
  %s.addr.i.i = alloca ptr, align 8
  %this.addr.i = alloca ptr, align 8
  %s.addr.i = alloca ptr, align 8
  %this.addr = alloca ptr, align 8
  %ofs = alloca %"class.std::basic_ofstream", align 8
  %agg.tmp = alloca %"class.fmt::v10::basic_format_string.82", align 8
  %exn.slot = alloca ptr, align 8
  %ehselector.slot = alloca i32, align 4
  store ptr %this, ptr %this.addr, align 8
  call void @_ZNSt14basic_ofstreamIcSt11char_traitsIcEEC1Ev(ptr noundef nonnull align 8 dereferenceable(248) %ofs)
  store ptr %agg.tmp, ptr %this.addr.i, align 8
  store ptr @.str.161, ptr %s.addr.i, align 8
  %this1.i = load ptr, ptr %this.addr.i, align 8
  %0 = load ptr, ptr %s.addr.i, align 8
  store ptr %this1.i, ptr %this.addr.i.i, align 8
  store ptr %0, ptr %s.addr.i.i, align 8
  %this1.i.i = load ptr, ptr %this.addr.i.i, align 8
  %1 = load ptr, ptr %s.addr.i.i, align 8
  store ptr %1, ptr %this1.i.i, align 8
  %size_.i.i = getelementptr inbounds %"class.fmt::v10::basic_string_view", ptr %this1.i.i, i32 0, i32 1
  %2 = load ptr, ptr %s.addr.i.i, align 8
  %call.i.i = call noundef i64 @_ZNSt11char_traitsIcE6lengthEPKc(ptr noundef %2)
  store i64 %call.i.i, ptr %size_.i.i, align 8
  %3 = load ptr, ptr %s.addr.i, align 8
  store ptr %3, ptr %.addr.i, align 8
  br label %invoke.cont

invoke.cont:                                      ; preds = %entry
  %4 = getelementptr inbounds { ptr, i64 }, ptr %agg.tmp, i32 0, i32 0
  %5 = load ptr, ptr %4, align 8
  %6 = getelementptr inbounds { ptr, i64 }, ptr %agg.tmp, i32 0, i32 1
  %7 = load i64, ptr %6, align 8
  invoke void @_ZN3fmt3v105printIJEEEvRSoNS0_19basic_format_stringIcJDpNS0_13type_identityIT_E4typeEEEEDpOS5_(ptr noundef nonnull align 8 dereferenceable(8) %ofs, ptr %5, i64 %7)
          to label %invoke.cont2 unwind label %lpad

invoke.cont2:                                     ; preds = %invoke.cont
  call void @_ZNSt14basic_ofstreamIcSt11char_traitsIcEED1Ev(ptr noundef nonnull align 8 dereferenceable(248) %ofs) #3
  ret void

lpad:                                             ; preds = %invoke.cont
  %8 = landingpad { ptr, i32 }
          cleanup
  %9 = extractvalue { ptr, i32 } %8, 0
  store ptr %9, ptr %exn.slot, align 8
  %10 = extractvalue { ptr, i32 } %8, 1
  store i32 %10, ptr %ehselector.slot, align 4
  call void @_ZNSt14basic_ofstreamIcSt11char_traitsIcEED1Ev(ptr noundef nonnull align 8 dereferenceable(248) %ofs) #3
  br label %eh.resume

eh.resume:                                        ; preds = %lpad
  %exn = load ptr, ptr %exn.slot, align 8
  %sel = load i32, ptr %ehselector.slot, align 4
  %lpad.val = insertvalue { ptr, i32 } poison, ptr %exn, 0
  %lpad.val3 = insertvalue { ptr, i32 } %lpad.val, i32 %sel, 1
  resume { ptr, i32 } %lpad.val3
}