; Function Attrs: mustprogress uwtable
define hidden void @_ZN33ostream_test_closed_ofstream_Test8TestBodyEv(ptr nocapture nonnull readnone align 8 %this) unnamed_addr #3 align 2 personality ptr @__gxx_personality_v0 {
entry:
  %ref.tmp.i = alloca %"class.fmt::v10::format_arg_store.214", align 16
  %ofs = alloca %"class.std::basic_ofstream", align 8
  call void @_ZNSt14basic_ofstreamIcSt11char_traitsIcEEC1Ev(ptr noundef nonnull align 8 dereferenceable(248) %ofs)
  call void @llvm.lifetime.start.p0(i64 16, ptr nonnull %ref.tmp.i)
  invoke void @_ZN3fmt3v106vprintIcEEvRSt13basic_ostreamIT_St11char_traitsIS3_EENS0_17basic_string_viewINS0_13type_identityIS3_E4typeEEENS0_17basic_format_argsINS0_20basic_format_contextINSt11conditionalIXsr3std7is_sameISB_cEE5valueENS0_8appenderESt20back_insert_iteratorINS0_6detail6bufferISB_EEEE4typeESB_EEEE(ptr noundef nonnull align 8 dereferenceable(8) %ofs, ptr nonnull @.str.161, i64 7, i64 0, ptr nonnull %ref.tmp.i)
          to label %invoke.cont2 unwind label %lpad

invoke.cont2:                                     ; preds = %entry
  call void @llvm.lifetime.end.p0(i64 16, ptr nonnull %ref.tmp.i)
  call void @_ZNSt14basic_ofstreamIcSt11char_traitsIcEED1Ev(ptr noundef nonnull align 8 dereferenceable(248) %ofs) #25
  ret void

lpad:                                             ; preds = %entry
  %0 = landingpad { ptr, i32 }
          cleanup
  call void @_ZNSt14basic_ofstreamIcSt11char_traitsIcEED1Ev(ptr noundef nonnull align 8 dereferenceable(248) %ofs) #25
  resume { ptr, i32 } %0
}